target datalayout = "e-m:e-p270:32:32-p271:32:32-p272:64:64-i64:64-i128:128-f80:128-n8:16:32:64-S128"
target triple = "x86_64-pc-linux-gnu"

%struct.AVFilterContext = type { ptr, ptr, ptr, ptr, ptr, i32, ptr, ptr, i32, ptr, ptr, i32, i32, ptr, ptr, ptr, ptr, i32, ptr, i32, i32 }
%struct.DeflickerContext = type { ptr, i32, i32, i32, i32, i32, i32, [4 x i32], [4 x i32], ptr, [129 x float], [129 x float], %struct.FFBufQueue, i32, ptr, ptr, ptr }
%struct.FFBufQueue = type { [129 x ptr], i16, i16 }

; Function Attrs: nounwind uwtable
define internal void @get_pm_factor(ptr noundef %0, ptr noundef %1) #1 {
  %3 = alloca ptr, align 8
  %4 = alloca ptr, align 8
  %5 = alloca ptr, align 8
  %6 = alloca i32, align 4
  store ptr %0, ptr %3, align 8, !tbaa !4
  store ptr %1, ptr %4, align 8, !tbaa !93
  call void @llvm.lifetime.start.p0(i64 8, ptr %5) #13
  %7 = load ptr, ptr %3, align 8, !tbaa !4
  %8 = getelementptr inbounds nuw %struct.AVFilterContext, ptr %7, i32 0, i32 9
  %9 = load ptr, ptr %8, align 8, !tbaa !9
  store ptr %9, ptr %5, align 8, !tbaa !22
  call void @llvm.lifetime.start.p0(i64 4, ptr %6) #13
  %10 = load ptr, ptr %4, align 8, !tbaa !93
  store float 0.000000e+00, ptr %10, align 4, !tbaa !46
  store i32 0, ptr %6, align 4, !tbaa !54
  br label %11

11:                                               ; preds = %32, %2
  %12 = load i32, ptr %6, align 4, !tbaa !54
  %13 = load ptr, ptr %5, align 8, !tbaa !22
  %14 = getelementptr inbounds nuw %struct.DeflickerContext, ptr %13, i32 0, i32 1
  %15 = load i32, ptr %14, align 8, !tbaa !42
  %16 = icmp slt i32 %12, %15
  br i1 %16, label %17, label %35

17:                                               ; preds = %11
  %18 = load ptr, ptr %5, align 8, !tbaa !22
  %19 = getelementptr inbounds nuw %struct.DeflickerContext, ptr %18, i32 0, i32 10
  %20 = load i32, ptr %6, align 4, !tbaa !54
  %21 = sext i32 %20 to i64
  %22 = getelementptr inbounds [129 x float], ptr %19, i64 0, i64 %21
  %23 = load float, ptr %22, align 4, !tbaa !46
  %24 = load ptr, ptr %5, align 8, !tbaa !22
  %25 = getelementptr inbounds nuw %struct.DeflickerContext, ptr %24, i32 0, i32 1
  %26 = load i32, ptr %25, align 8, !tbaa !42
  %27 = sitofp i32 %26 to float
  %28 = call nsz float @llvm.pow.f32(float %23, float %27)
  %29 = load ptr, ptr %4, align 8, !tbaa !93
  %30 = load float, ptr %29, align 4, !tbaa !46
  %31 = fadd nsz float %30, %28
  store float %31, ptr %29, align 4, !tbaa !46
  br label %32

32:                                               ; preds = %17
  %33 = load i32, ptr %6, align 4, !tbaa !54
  %34 = add nsw i32 %33, 1
  store i32 %34, ptr %6, align 4, !tbaa !54
  br label %11, !llvm.loop !106

35:                                               ; preds = %11
  %36 = load ptr, ptr %5, align 8, !tbaa !22
  %37 = getelementptr inbounds nuw %struct.DeflickerContext, ptr %36, i32 0, i32 1
  %38 = load i32, ptr %37, align 8, !tbaa !42
  %39 = sitofp i32 %38 to float
  %40 = load ptr, ptr %4, align 8, !tbaa !93
  %41 = load float, ptr %40, align 4, !tbaa !46
  %42 = fdiv nsz float %41, %39
  store float %42, ptr %40, align 4, !tbaa !46
  %43 = load ptr, ptr %4, align 8, !tbaa !93
  %44 = load float, ptr %43, align 4, !tbaa !46
  %45 = load ptr, ptr %5, align 8, !tbaa !22
  %46 = getelementptr inbounds nuw %struct.DeflickerContext, ptr %45, i32 0, i32 1
  %47 = load i32, ptr %46, align 8, !tbaa !42
  %48 = sitofp i32 %47 to float
  %49 = fdiv nsz float 1.000000e+00, %48
  %50 = call nsz float @llvm.pow.f32(float %44, float %49)
  %51 = load ptr, ptr %4, align 8, !tbaa !93
  store float %50, ptr %51, align 4, !tbaa !46
  %52 = load ptr, ptr %5, align 8, !tbaa !22
  %53 = getelementptr inbounds nuw %struct.DeflickerContext, ptr %52, i32 0, i32 10
  %54 = getelementptr inbounds [129 x float], ptr %53, i64 0, i64 0
  %55 = load float, ptr %54, align 8, !tbaa !46
  %56 = load ptr, ptr %4, align 8, !tbaa !93
  %57 = load float, ptr %56, align 4, !tbaa !46
  %58 = fdiv nsz float %57, %55
  store float %58, ptr %56, align 4, !tbaa !46
  call void @llvm.lifetime.end.p0(i64 4, ptr %6) #13
  call void @llvm.lifetime.end.p0(i64 8, ptr %5) #13
  ret void
}