; Function Attrs: nofree norecurse nosync nounwind memory(read, argmem: readwrite, inaccessiblemem: none) uwtable
define internal void @get_pm_factor(ptr noundef readonly captures(none) %0, ptr noundef writeonly captures(none) initializes((0, 4)) %1) #9 {
  %3 = getelementptr inbounds nuw i8, ptr %0, i64 72
  %4 = load ptr, ptr %3, align 8, !tbaa !4
  store float 0.000000e+00, ptr %1, align 4, !tbaa !47
  %5 = getelementptr inbounds nuw i8, ptr %4, i64 8
  %6 = load i32, ptr %5, align 8, !tbaa !43
  %7 = icmp sgt i32 %6, 0
  br i1 %7, label %.lr.ph, label %.._crit_edge_crit_edge

.._crit_edge_crit_edge:                           ; preds = %2
  %.pre = sitofp i32 %6 to float
  br label %._crit_edge

.lr.ph:                                           ; preds = %2
  %8 = getelementptr inbounds nuw i8, ptr %4, i64 72
  %9 = uitofp nneg i32 %6 to float
  %wide.trip.count = zext nneg i32 %6 to i64
  br label %10

10:                                               ; preds = %.lr.ph, %10
  %indvars.iv = phi i64 [ 0, %.lr.ph ], [ %indvars.iv.next, %10 ]
  %11 = phi float [ 0.000000e+00, %.lr.ph ], [ %15, %10 ]
  %12 = getelementptr inbounds nuw [129 x float], ptr %8, i64 0, i64 %indvars.iv
  %13 = load float, ptr %12, align 4, !tbaa !47
  %14 = tail call nsz float @llvm.pow.f32(float %13, float %9)
  %15 = fadd nsz float %11, %14
  store float %15, ptr %1, align 4, !tbaa !47
  %indvars.iv.next = add nuw nsw i64 %indvars.iv, 1
  %exitcond.not = icmp eq i64 %indvars.iv.next, %wide.trip.count
  br i1 %exitcond.not, label %._crit_edge, label %10, !llvm.loop !92

._crit_edge:                                      ; preds = %10, %.._crit_edge_crit_edge
  %.pre-phi = phi float [ %.pre, %.._crit_edge_crit_edge ], [ %9, %10 ]
  %16 = phi float [ 0.000000e+00, %.._crit_edge_crit_edge ], [ %15, %10 ]
  %17 = fdiv nsz float %16, %.pre-phi
  %18 = fdiv nsz float 1.000000e+00, %.pre-phi
  %19 = tail call nsz float @llvm.pow.f32(float %17, float %18)
  store float %19, ptr %1, align 4, !tbaa !47
  %20 = getelementptr inbounds nuw i8, ptr %4, i64 72
  %21 = load float, ptr %20, align 8, !tbaa !47
  %22 = fdiv nsz float %19, %21
  store float %22, ptr %1, align 4, !tbaa !47
  ret void
}